; Function Attrs: nounwind uwtable
define range(i32 0, 2) i32 @dt_dev_pixelpipe_init_cached(ptr noundef initializes((120, 124), (144, 152), (156, 164), (328, 388), (520, 532), (536, 576), (580, 588), (628, 632)) %0, i64 noundef %1, i32 noundef %2, i64 noundef %3) local_unnamed_addr #0 {
  %5 = getelementptr inbounds nuw i8, ptr %0, i64 628
  store i32 -1, ptr %5, align 4, !tbaa !137
  %6 = getelementptr inbounds nuw i8, ptr %0, i64 520
  store i32 0, ptr %6, align 8, !tbaa !138
  %7 = getelementptr inbounds nuw i8, ptr %0, i64 144
  store i32 0, ptr %7, align 16, !tbaa !139
  %8 = getelementptr inbounds nuw i8, ptr %0, i64 368
  store i32 0, ptr %8, align 16, !tbaa !140
  %9 = getelementptr inbounds nuw i8, ptr %0, i64 156
  store i32 0, ptr %9, align 4, !tbaa !141
  %10 = getelementptr inbounds nuw i8, ptr %0, i64 524
  store i32 0, ptr %10, align 4, !tbaa !142
  %11 = getelementptr inbounds nuw i8, ptr %0, i64 148
  store i32 0, ptr %11, align 4, !tbaa !143
  %12 = getelementptr inbounds nuw i8, ptr %0, i64 372
  store i32 0, ptr %12, align 4, !tbaa !144
  %13 = getelementptr inbounds nuw i8, ptr %0, i64 160
  store i32 0, ptr %13, align 16, !tbaa !145
  %14 = getelementptr inbounds nuw i8, ptr %0, i64 328
  %15 = getelementptr inbounds nuw i8, ptr %0, i64 360
  tail call void @llvm.memset.p0.i64(ptr noundef nonnull align 8 dereferenceable(24) %14, i8 0, i64 24, i1 false)
  store i64 %1, ptr %15, align 8, !tbaa !146
  %16 = getelementptr inbounds nuw i8, ptr %0, i64 120
  store i32 0, ptr %16, align 8, !tbaa !147
  %17 = getelementptr inbounds nuw i8, ptr %0, i64 352
  store ptr null, ptr %17, align 16, !tbaa !148
  %18 = getelementptr inbounds nuw i8, ptr %0, i64 376
  store float 0.000000e+00, ptr %18, align 8, !tbaa !149
  %19 = getelementptr inbounds nuw i8, ptr %0, i64 380
  store float 0.000000e+00, ptr %19, align 4, !tbaa !150
  %20 = getelementptr inbounds nuw i8, ptr %0, i64 384
  store float 0.000000e+00, ptr %20, align 16, !tbaa !151
  %21 = getelementptr inbounds nuw i8, ptr %0, i64 580
  store i32 0, ptr %21, align 4, !tbaa !152
  %22 = getelementptr inbounds nuw i8, ptr %0, i64 536
  tail call void @llvm.memset.p0.i64(ptr noundef nonnull align 8 dereferenceable(40) %22, i8 0, i64 40, i1 false)
  %23 = getelementptr inbounds nuw i8, ptr %0, i64 528
  store i32 0, ptr %23, align 16, !tbaa !83
  %24 = getelementptr inbounds nuw i8, ptr %0, i64 584
  store i32 0, ptr %24, align 8, !tbaa !153
  %25 = getelementptr inbounds nuw i8, ptr %0, i64 588
  store atomic i32 0, ptr %25 seq_cst, align 4
  %26 = getelementptr inbounds nuw i8, ptr %0, i64 596
  %27 = getelementptr inbounds nuw i8, ptr %0, i64 624
  tail call void @llvm.memset.p0.i64(ptr noundef nonnull align 4 dereferenceable(20) %26, i8 0, i64 20, i1 false)
  store i32 256, ptr %27, align 16, !tbaa !154
  %28 = getelementptr inbounds nuw i8, ptr %0, i64 400
  %29 = tail call i32 @pthread_mutex_init(ptr noundef nonnull %28, ptr noundef null) #27
  %30 = getelementptr inbounds nuw i8, ptr %0, i64 440
  %31 = tail call i32 @pthread_mutex_init(ptr noundef nonnull %30, ptr noundef null) #27
  %32 = getelementptr inbounds nuw i8, ptr %0, i64 480
  %33 = tail call i32 @pthread_mutex_init(ptr noundef nonnull %32, ptr noundef null) #27
  %34 = getelementptr inbounds nuw i8, ptr %0, i64 2496
  store i32 -1, ptr %34, align 16, !tbaa !155
  %35 = getelementptr inbounds nuw i8, ptr %0, i64 2504
  store ptr null, ptr %35, align 8, !tbaa !156
  %36 = getelementptr inbounds nuw i8, ptr %0, i64 2512
  store i32 4, ptr %36, align 16, !tbaa !157
  %37 = getelementptr inbounds nuw i8, ptr %0, i64 2520
  %38 = getelementptr inbounds nuw i8, ptr %0, i64 304
  %39 = getelementptr inbounds nuw i8, ptr %0, i64 128
  store i64 0, ptr %39, align 16, !tbaa !81
  %40 = getelementptr inbounds nuw i8, ptr %0, i64 2552
  tail call void @llvm.memset.p0.i64(ptr noundef nonnull align 16 dereferenceable(24) %38, i8 0, i64 24, i1 false)
  tail call void @llvm.memset.p0.i64(ptr noundef nonnull align 8 dereferenceable(28) %37, i8 0, i64 28, i1 false)
  tail call void @llvm.memset.p0.i64(ptr noundef nonnull align 8 dereferenceable(16) %40, i8 0, i64 16, i1 false)
  %41 = tail call i32 @dt_dev_pixelpipe_cache_init(ptr noundef %0, i32 noundef %2, i64 noundef %1, i64 noundef %3)
  ret i32 %41
}